target datalayout = "e-m:e-p270:32:32-p271:32:32-p272:64:64-i64:64-i128:128-f80:128-n8:16:32:64-S128"
target triple = "x86_64-pc-linux-gnu"

@.str.656 = private unnamed_addr constant [17 x i8] c"{\22addr\22:\22NULL\22}\0A\00", align 1

; Function Attrs: mustprogress uwtable
define dso_local noundef ptr @_ZN7AstNode15dumpTreeJsonGdbEl(i64 noundef %0) #4 align 2 {
  %2 = alloca ptr, align 8
  %3 = alloca i64, align 8
  store i64 %0, ptr %3, align 8
  %4 = load i64, ptr %3, align 8
  %5 = icmp ne i64 %4, 0
  br i1 %5, label %8, label %6

6:                                                ; preds = %1
  %7 = call noalias ptr @strdup(ptr noundef @.str.656) #3
  store ptr %7, ptr %2, align 8
  br label %12

8:                                                ; preds = %1
  %9 = load i64, ptr %3, align 8
  %10 = inttoptr i64 %9 to ptr
  %11 = call noundef ptr @_ZN7AstNode15dumpTreeJsonGdbEPKS_(ptr noundef %10)
  store ptr %11, ptr %2, align 8
  br label %12

12:                                               ; preds = %8, %6
  %13 = load ptr, ptr %2, align 8
  ret ptr %13
}