; Function Attrs: mustprogress uwtable
define dso_local noalias noundef ptr @_ZN7AstNode15dumpTreeJsonGdbEl(i64 noundef %0) local_unnamed_addr #4 align 2 {
  %.not = icmp eq i64 %0, 0
  br i1 %.not, label %2, label %4

2:                                                ; preds = %1
  %3 = tail call noalias dereferenceable_or_null(17) ptr @strdup(ptr noundef nonnull @.str.656) #24
  br label %7

4:                                                ; preds = %1
  %5 = inttoptr i64 %0 to ptr
  %6 = tail call noundef ptr @_ZN7AstNode15dumpTreeJsonGdbEPKS_(ptr noundef nonnull %5)
  br label %7

7:                                                ; preds = %4, %2
  %.0 = phi ptr [ %6, %4 ], [ %3, %2 ]
  ret ptr %.0
}